target datalayout = "e-m:e-p270:32:32-p271:32:32-p272:64:64-i64:64-i128:128-f80:128-n8:16:32:64-S128"
target triple = "x86_64-pc-linux-gnu"

%struct.H5EA_sblock_t = type { %struct.H5C_cache_entry_t, i64, ptr, ptr, ptr, i64, i64, i8, ptr, ptr, i32, i64, i64, i64, i64, i64 }
%struct.H5C_cache_entry_t = type { ptr, i64, i64, ptr, i8, ptr, i8, i8, i8, i8, i32, i8, i8, i8, i8, i8, i32, ptr, i32, i32, i32, i32, i32, i8, i8, ptr, ptr, ptr, ptr, ptr, ptr, i8, i32, i8, i64, ptr, i64, i64, i32, i8, i32, i32, i8, ptr, ptr, ptr }
%struct.H5EA_hdr_t = type { %struct.H5C_cache_entry_t, %struct.H5EA_create_t, i64, %struct.H5EA_stat_t, %struct.anon.1, i64, i64, i64, ptr, i64, i8, i64, i64, i8, i64, ptr, i64, ptr, i8, ptr, ptr }
%struct.H5EA_create_t = type { ptr, i8, i8, i8, i8, i8, i8 }
%struct.H5EA_stat_t = type { %struct.anon, %struct.anon.0 }
%struct.anon = type { i64, i64, i64 }
%struct.anon.0 = type { i64, i64, i64, i64, i64, i64 }
%struct.anon.1 = type { i64, ptr }
%struct.H5EA_sblk_info_t = type { i64, i64, i64, i64 }

@H5_page_init_blk_free_list = global { i8, [3 x i8], i32, i32, [4 x i8], i64, ptr, ptr } { i8 0, [3 x i8] zeroinitializer, i32 0, i32 0, [4 x i8] zeroinitializer, i64 0, ptr @.str, ptr null }, align 8
@H5EA_init_g = external global i8, align 1
@H5_libterm_g = external global i8, align 1
@.str.1 = private unnamed_addr constant [104 x i8] c"generated/home/dtcxzyw/WorkSpace/Projects/compilers/llvm-opt-benchmark/bench/hdf5/hdf5/src/H5EAsblock.c\00", align 1
@__func__.H5EA__sblock_alloc = private unnamed_addr constant [19 x i8] c"H5EA__sblock_alloc\00", align 1
@H5E_EARRAY_g = external global i64, align 8
@H5E_CANTALLOC_g = external global i64, align 8
@.str.2 = private unnamed_addr constant [58 x i8] c"memory allocation failed for extensible array super block\00", align 1
@H5E_CANTINC_g = external global i64, align 8
@.str.3 = private unnamed_addr constant [55 x i8] c"can't increment reference count on shared array header\00", align 1
@.str.4 = private unnamed_addr constant [62 x i8] c"memory allocation failed for super block data block addresses\00", align 1
@.str.5 = private unnamed_addr constant [59 x i8] c"memory allocation failed for super block page init bitmask\00", align 1
@H5E_CANTFREE_g = external global i64, align 8
@.str.6 = private unnamed_addr constant [47 x i8] c"unable to destroy extensible array super block\00", align 1
@H5_H5EA_sblock_t_reg_free_list = internal global { i8, [3 x i8], i32, i32, [4 x i8], ptr, i64, ptr } { i8 0, [3 x i8] zeroinitializer, i32 0, i32 0, [4 x i8] zeroinitializer, ptr @.str.16, i64 368, ptr null }, align 8
@H5_haddr_t_seq_free_list = internal global { { i8, [3 x i8], i32, i32, [4 x i8], i64, ptr, ptr }, i64 } { { i8, [3 x i8], i32, i32, [4 x i8], i64, ptr, ptr } { i8 0, [3 x i8] zeroinitializer, i32 0, i32 0, [4 x i8] zeroinitializer, i64 0, ptr @.str.18, ptr null }, i64 8 }, align 8

; Function Attrs: nounwind uwtable
define ptr @H5EA__sblock_alloc(ptr noundef %0, ptr noundef %1, i32 noundef %2) #0 {
  %4 = alloca ptr, align 8
  %5 = alloca ptr, align 8
  %6 = alloca i32, align 4
  %7 = alloca ptr, align 8
  %8 = alloca ptr, align 8
  %9 = alloca i8, align 1
  store ptr %0, ptr %4, align 8, !tbaa !3
  store ptr %1, ptr %5, align 8, !tbaa !8
  store i32 %2, ptr %6, align 4, !tbaa !10
  call void @llvm.lifetime.start.p0(i64 8, ptr %7) #4
  store ptr null, ptr %7, align 8, !tbaa !12
  call void @llvm.lifetime.start.p0(i64 8, ptr %8) #4
  store ptr null, ptr %8, align 8, !tbaa !12
  call void @llvm.lifetime.start.p0(i64 1, ptr %9) #4
  store i8 0, ptr %9, align 1, !tbaa !14
  %10 = load i8, ptr @H5EA_init_g, align 1, !tbaa !14, !range !16, !noundef !17
  %11 = trunc i8 %10 to i1
  br i1 %11, label %16, label %12

12:                                               ; preds = %3
  %13 = load i8, ptr @H5_libterm_g, align 1, !tbaa !14, !range !16, !noundef !17
  %14 = trunc i8 %13 to i1
  %15 = xor i1 %14, true
  br label %16

16:                                               ; preds = %12, %3
  %17 = phi i1 [ true, %3 ], [ %15, %12 ]
  %18 = xor i1 %17, true
  %19 = xor i1 %18, true
  %20 = zext i1 %19 to i32
  %21 = sext i32 %20 to i64
  %22 = call i64 @llvm.expect.i64(i64 %21, i64 1)
  %23 = icmp ne i64 %22, 0
  br i1 %23, label %24, label %225

24:                                               ; preds = %16
  %25 = call noalias ptr @H5FL_reg_calloc(ptr noundef @H5_H5EA_sblock_t_reg_free_list)
  store ptr %25, ptr %7, align 8, !tbaa !12
  %26 = icmp eq ptr null, %25
  br i1 %26, label %27, label %46

27:                                               ; preds = %24
  br label %28

28:                                               ; preds = %27
  br label %29

29:                                               ; preds = %28
  br label %30

30:                                               ; preds = %29
  %31 = load i64, ptr @H5E_EARRAY_g, align 8, !tbaa !18
  %32 = load i64, ptr @H5E_CANTALLOC_g, align 8, !tbaa !18
  %33 = call i32 (ptr, ptr, i32, i64, i64, ptr, ...) @H5E_printf_stack(ptr noundef @.str.1, ptr noundef @__func__.H5EA__sblock_alloc, i32 noundef 102, i64 noundef %31, i64 noundef %32, ptr noundef @.str.2)
  br label %34

34:                                               ; preds = %30
  br label %35

35:                                               ; preds = %34
  store i8 1, ptr %9, align 1, !tbaa !14
  %36 = load i8, ptr %9, align 1, !tbaa !14, !range !16, !noundef !17
  %37 = trunc i8 %36 to i1
  %38 = zext i1 %37 to i8
  store i8 %38, ptr %9, align 1, !tbaa !14
  br label %39

39:                                               ; preds = %35
  br label %40

40:                                               ; preds = %39
  br label %41

41:                                               ; preds = %40
  store ptr null, ptr %8, align 8, !tbaa !12
  br label %197

42:                                               ; No predecessors!
  br label %43

43:                                               ; preds = %42
  br label %44

44:                                               ; preds = %43
  br label %45

45:                                               ; preds = %44
  br label %46

46:                                               ; preds = %45, %24
  %47 = load ptr, ptr %4, align 8, !tbaa !3
  %48 = call i32 @H5EA__hdr_incr(ptr noundef %47)
  %49 = icmp slt i32 %48, 0
  br i1 %49, label %50, label %69

50:                                               ; preds = %46
  br label %51

51:                                               ; preds = %50
  br label %52

52:                                               ; preds = %51
  br label %53

53:                                               ; preds = %52
  %54 = load i64, ptr @H5E_EARRAY_g, align 8, !tbaa !18
  %55 = load i64, ptr @H5E_CANTINC_g, align 8, !tbaa !18
  %56 = call i32 (ptr, ptr, i32, i64, i64, ptr, ...) @H5E_printf_stack(ptr noundef @.str.1, ptr noundef @__func__.H5EA__sblock_alloc, i32 noundef 106, i64 noundef %54, i64 noundef %55, ptr noundef @.str.3)
  br label %57

57:                                               ; preds = %53
  br label %58

58:                                               ; preds = %57
  store i8 1, ptr %9, align 1, !tbaa !14
  %59 = load i8, ptr %9, align 1, !tbaa !14, !range !16, !noundef !17
  %60 = trunc i8 %59 to i1
  %61 = zext i1 %60 to i8
  store i8 %61, ptr %9, align 1, !tbaa !14
  br label %62

62:                                               ; preds = %58
  br label %63

63:                                               ; preds = %62
  br label %64

64:                                               ; preds = %63
  store ptr null, ptr %8, align 8, !tbaa !12
  br label %197

65:                                               ; No predecessors!
  br label %66

66:                                               ; preds = %65
  br label %67

67:                                               ; preds = %66
  br label %68

68:                                               ; preds = %67
  br label %69

69:                                               ; preds = %68, %46
  %70 = load ptr, ptr %4, align 8, !tbaa !3
  %71 = load ptr, ptr %7, align 8, !tbaa !12
  %72 = getelementptr inbounds nuw %struct.H5EA_sblock_t, ptr %71, i32 0, i32 4
  store ptr %70, ptr %72, align 8, !tbaa !20
  %73 = load ptr, ptr %5, align 8, !tbaa !8
  %74 = load ptr, ptr %7, align 8, !tbaa !12
  %75 = getelementptr inbounds nuw %struct.H5EA_sblock_t, ptr %74, i32 0, i32 9
  store ptr %73, ptr %75, align 8, !tbaa !31
  %76 = load ptr, ptr %7, align 8, !tbaa !12
  %77 = getelementptr inbounds nuw %struct.H5EA_sblock_t, ptr %76, i32 0, i32 5
  store i64 -1, ptr %77, align 8, !tbaa !32
  %78 = load i32, ptr %6, align 4, !tbaa !10
  %79 = load ptr, ptr %7, align 8, !tbaa !12
  %80 = getelementptr inbounds nuw %struct.H5EA_sblock_t, ptr %79, i32 0, i32 10
  store i32 %78, ptr %80, align 8, !tbaa !33
  %81 = load ptr, ptr %4, align 8, !tbaa !3
  %82 = getelementptr inbounds nuw %struct.H5EA_hdr_t, ptr %81, i32 0, i32 15
  %83 = load ptr, ptr %82, align 8, !tbaa !34
  %84 = load i32, ptr %6, align 4, !tbaa !10
  %85 = zext i32 %84 to i64
  %86 = getelementptr inbounds nuw %struct.H5EA_sblk_info_t, ptr %83, i64 %85
  %87 = getelementptr inbounds nuw %struct.H5EA_sblk_info_t, ptr %86, i32 0, i32 0
  %88 = load i64, ptr %87, align 8, !tbaa !45
  %89 = load ptr, ptr %7, align 8, !tbaa !12
  %90 = getelementptr inbounds nuw %struct.H5EA_sblock_t, ptr %89, i32 0, i32 11
  store i64 %88, ptr %90, align 8, !tbaa !47
  %91 = load ptr, ptr %4, align 8, !tbaa !3
  %92 = getelementptr inbounds nuw %struct.H5EA_hdr_t, ptr %91, i32 0, i32 15
  %93 = load ptr, ptr %92, align 8, !tbaa !34
  %94 = load i32, ptr %6, align 4, !tbaa !10
  %95 = zext i32 %94 to i64
  %96 = getelementptr inbounds nuw %struct.H5EA_sblk_info_t, ptr %93, i64 %95
  %97 = getelementptr inbounds nuw %struct.H5EA_sblk_info_t, ptr %96, i32 0, i32 1
  %98 = load i64, ptr %97, align 8, !tbaa !48
  %99 = load ptr, ptr %7, align 8, !tbaa !12
  %100 = getelementptr inbounds nuw %struct.H5EA_sblock_t, ptr %99, i32 0, i32 12
  store i64 %98, ptr %100, align 8, !tbaa !49
  %101 = load ptr, ptr %7, align 8, !tbaa !12
  %102 = getelementptr inbounds nuw %struct.H5EA_sblock_t, ptr %101, i32 0, i32 11
  %103 = load i64, ptr %102, align 8, !tbaa !47
  %104 = call noalias ptr @H5FL_seq_malloc(ptr noundef @H5_haddr_t_seq_free_list, i64 noundef %103)
  %105 = load ptr, ptr %7, align 8, !tbaa !12
  %106 = getelementptr inbounds nuw %struct.H5EA_sblock_t, ptr %105, i32 0, i32 2
  store ptr %104, ptr %106, align 8, !tbaa !50
  %107 = icmp eq ptr null, %104
  br i1 %107, label %108, label %127

108:                                              ; preds = %69
  br label %109

109:                                              ; preds = %108
  br label %110

110:                                              ; preds = %109
  br label %111

111:                                              ; preds = %110
  %112 = load i64, ptr @H5E_EARRAY_g, align 8, !tbaa !18
  %113 = load i64, ptr @H5E_CANTALLOC_g, align 8, !tbaa !18
  %114 = call i32 (ptr, ptr, i32, i64, i64, ptr, ...) @H5E_printf_stack(ptr noundef @.str.1, ptr noundef @__func__.H5EA__sblock_alloc, i32 noundef 122, i64 noundef %112, i64 noundef %113, ptr noundef @.str.4)
  br label %115

115:                                              ; preds = %111
  br label %116

116:                                              ; preds = %115
  store i8 1, ptr %9, align 1, !tbaa !14
  %117 = load i8, ptr %9, align 1, !tbaa !14, !range !16, !noundef !17
  %118 = trunc i8 %117 to i1
  %119 = zext i1 %118 to i8
  store i8 %119, ptr %9, align 1, !tbaa !14
  br label %120

120:                                              ; preds = %116
  br label %121

121:                                              ; preds = %120
  br label %122

122:                                              ; preds = %121
  store ptr null, ptr %8, align 8, !tbaa !12
  br label %197

123:                                              ; No predecessors!
  br label %124

124:                                              ; preds = %123
  br label %125

125:                                              ; preds = %124
  br label %126

126:                                              ; preds = %125
  br label %127

127:                                              ; preds = %126, %69
  %128 = load ptr, ptr %7, align 8, !tbaa !12
  %129 = getelementptr inbounds nuw %struct.H5EA_sblock_t, ptr %128, i32 0, i32 12
  %130 = load i64, ptr %129, align 8, !tbaa !49
  %131 = load ptr, ptr %4, align 8, !tbaa !3
  %132 = getelementptr inbounds nuw %struct.H5EA_hdr_t, ptr %131, i32 0, i32 16
  %133 = load i64, ptr %132, align 8, !tbaa !51
  %134 = icmp ugt i64 %130, %133
  br i1 %134, label %135, label %195

135:                                              ; preds = %127
  %136 = load ptr, ptr %7, align 8, !tbaa !12
  %137 = getelementptr inbounds nuw %struct.H5EA_sblock_t, ptr %136, i32 0, i32 12
  %138 = load i64, ptr %137, align 8, !tbaa !49
  %139 = load ptr, ptr %4, align 8, !tbaa !3
  %140 = getelementptr inbounds nuw %struct.H5EA_hdr_t, ptr %139, i32 0, i32 16
  %141 = load i64, ptr %140, align 8, !tbaa !51
  %142 = udiv i64 %138, %141
  %143 = load ptr, ptr %7, align 8, !tbaa !12
  %144 = getelementptr inbounds nuw %struct.H5EA_sblock_t, ptr %143, i32 0, i32 13
  store i64 %142, ptr %144, align 8, !tbaa !52
  %145 = load ptr, ptr %7, align 8, !tbaa !12
  %146 = getelementptr inbounds nuw %struct.H5EA_sblock_t, ptr %145, i32 0, i32 13
  %147 = load i64, ptr %146, align 8, !tbaa !52
  %148 = add i64 %147, 7
  %149 = udiv i64 %148, 8
  %150 = load ptr, ptr %7, align 8, !tbaa !12
  %151 = getelementptr inbounds nuw %struct.H5EA_sblock_t, ptr %150, i32 0, i32 14
  store i64 %149, ptr %151, align 8, !tbaa !53
  %152 = load ptr, ptr %7, align 8, !tbaa !12
  %153 = getelementptr inbounds nuw %struct.H5EA_sblock_t, ptr %152, i32 0, i32 11
  %154 = load i64, ptr %153, align 8, !tbaa !47
  %155 = load ptr, ptr %7, align 8, !tbaa !12
  %156 = getelementptr inbounds nuw %struct.H5EA_sblock_t, ptr %155, i32 0, i32 14
  %157 = load i64, ptr %156, align 8, !tbaa !53
  %158 = mul i64 %154, %157
  %159 = call noalias ptr @H5FL_blk_calloc(ptr noundef @H5_page_init_blk_free_list, i64 noundef %158)
  %160 = load ptr, ptr %7, align 8, !tbaa !12
  %161 = getelementptr inbounds nuw %struct.H5EA_sblock_t, ptr %160, i32 0, i32 3
  store ptr %159, ptr %161, align 8, !tbaa !54
  %162 = icmp eq ptr null, %159
  br i1 %162, label %163, label %182

163:                                              ; preds = %135
  br label %164

164:                                              ; preds = %163
  br label %165

165:                                              ; preds = %164
  br label %166

166:                                              ; preds = %165
  %167 = load i64, ptr @H5E_EARRAY_g, align 8, !tbaa !18
  %168 = load i64, ptr @H5E_CANTALLOC_g, align 8, !tbaa !18
  %169 = call i32 (ptr, ptr, i32, i64, i64, ptr, ...) @H5E_printf_stack(ptr noundef @.str.1, ptr noundef @__func__.H5EA__sblock_alloc, i32 noundef 143, i64 noundef %167, i64 noundef %168, ptr noundef @.str.5)
  br label %170

170:                                              ; preds = %166
  br label %171

171:                                              ; preds = %170
  store i8 1, ptr %9, align 1, !tbaa !14
  %172 = load i8, ptr %9, align 1, !tbaa !14, !range !16, !noundef !17
  %173 = trunc i8 %172 to i1
  %174 = zext i1 %173 to i8
  store i8 %174, ptr %9, align 1, !tbaa !14
  br label %175

175:                                              ; preds = %171
  br label %176

176:                                              ; preds = %175
  br label %177

177:                                              ; preds = %176
  store ptr null, ptr %8, align 8, !tbaa !12
  br label %197

178:                                              ; No predecessors!
  br label %179

179:                                              ; preds = %178
  br label %180

180:                                              ; preds = %179
  br label %181

181:                                              ; preds = %180
  br label %182

182:                                              ; preds = %181, %135
  %183 = load ptr, ptr %4, align 8, !tbaa !3
  %184 = getelementptr inbounds nuw %struct.H5EA_hdr_t, ptr %183, i32 0, i32 16
  %185 = load i64, ptr %184, align 8, !tbaa !51
  %186 = load ptr, ptr %4, align 8, !tbaa !3
  %187 = getelementptr inbounds nuw %struct.H5EA_hdr_t, ptr %186, i32 0, i32 1
  %188 = getelementptr inbounds nuw %struct.H5EA_create_t, ptr %187, i32 0, i32 1
  %189 = load i8, ptr %188, align 8, !tbaa !55
  %190 = zext i8 %189 to i64
  %191 = mul i64 %185, %190
  %192 = add i64 %191, 4
  %193 = load ptr, ptr %7, align 8, !tbaa !12
  %194 = getelementptr inbounds nuw %struct.H5EA_sblock_t, ptr %193, i32 0, i32 15
  store i64 %192, ptr %194, align 8, !tbaa !56
  br label %195

195:                                              ; preds = %182, %127
  %196 = load ptr, ptr %7, align 8, !tbaa !12
  store ptr %196, ptr %8, align 8, !tbaa !12
  br label %197

197:                                              ; preds = %195, %177, %122, %64, %41
  %198 = load ptr, ptr %8, align 8, !tbaa !12
  %199 = icmp ne ptr %198, null
  br i1 %199, label %224, label %200

200:                                              ; preds = %197
  %201 = load ptr, ptr %7, align 8, !tbaa !12
  %202 = icmp ne ptr %201, null
  br i1 %202, label %203, label %223

203:                                              ; preds = %200
  %204 = load ptr, ptr %7, align 8, !tbaa !12
  %205 = call i32 @H5EA__sblock_dest(ptr noundef %204)
  %206 = icmp slt i32 %205, 0
  br i1 %206, label %207, label %223

207:                                              ; preds = %203
  br label %208

208:                                              ; preds = %207
  br label %209

209:                                              ; preds = %208
  br label %210

210:                                              ; preds = %209
  %211 = load i64, ptr @H5E_EARRAY_g, align 8, !tbaa !18
  %212 = load i64, ptr @H5E_CANTFREE_g, align 8, !tbaa !18
  %213 = call i32 (ptr, ptr, i32, i64, i64, ptr, ...) @H5E_printf_stack(ptr noundef @.str.1, ptr noundef @__func__.H5EA__sblock_alloc, i32 noundef 155, i64 noundef %211, i64 noundef %212, ptr noundef @.str.6)
  br label %214

214:                                              ; preds = %210
  br label %215

215:                                              ; preds = %214
  store i8 1, ptr %9, align 1, !tbaa !14
  %216 = load i8, ptr %9, align 1, !tbaa !14, !range !16, !noundef !17
  %217 = trunc i8 %216 to i1
  %218 = zext i1 %217 to i8
  store i8 %218, ptr %9, align 1, !tbaa !14
  br label %219

219:                                              ; preds = %215
  br label %220

220:                                              ; preds = %219
  store ptr null, ptr %8, align 8, !tbaa !12
  br label %221

221:                                              ; preds = %220
  br label %222

222:                                              ; preds = %221
  br label %223

223:                                              ; preds = %222, %203, %200
  br label %224

224:                                              ; preds = %223, %197
  br label %225

225:                                              ; preds = %224, %16
  %226 = load ptr, ptr %8, align 8, !tbaa !12
  call void @llvm.lifetime.end.p0(i64 1, ptr %9) #4
  call void @llvm.lifetime.end.p0(i64 8, ptr %8) #4
  call void @llvm.lifetime.end.p0(i64 8, ptr %7) #4
  ret ptr %226
}