; Function Attrs: nounwind uwtable
define ptr @H5EA__sblock_alloc(ptr noundef %0, ptr noundef %1, i32 noundef %2) local_unnamed_addr #0 {
  %4 = load i8, ptr @H5EA_init_g, align 1, !tbaa !3, !range !7, !noundef !8
  %5 = trunc nuw i8 %4 to i1
  %6 = load i8, ptr @H5_libterm_g, align 1, !range !7
  %7 = trunc nuw i8 %6 to i1
  %8 = xor i1 %7, true
  %9 = select i1 %5, i1 true, i1 %8
  br i1 %9, label %10, label %.thread, !prof !9

10:                                               ; preds = %3
  %11 = tail call noalias ptr @H5FL_reg_calloc(ptr noundef nonnull @H5_H5EA_sblock_t_reg_free_list) #3
  %12 = icmp eq ptr %11, null
  br i1 %12, label %13, label %17

13:                                               ; preds = %10
  %14 = load i64, ptr @H5E_EARRAY_g, align 8, !tbaa !10
  %15 = load i64, ptr @H5E_CANTALLOC_g, align 8, !tbaa !10
  %16 = tail call i32 (ptr, ptr, i32, i64, i64, ptr, ...) @H5E_printf_stack(ptr noundef nonnull @.str.1, ptr noundef nonnull @__func__.H5EA__sblock_alloc, i32 noundef 102, i64 noundef %14, i64 noundef %15, ptr noundef nonnull @.str.2) #3
  br label %.thread

17:                                               ; preds = %10
  %18 = tail call i32 @H5EA__hdr_incr(ptr noundef %0) #3
  %19 = icmp slt i32 %18, 0
  br i1 %19, label %20, label %24

20:                                               ; preds = %17
  %21 = load i64, ptr @H5E_EARRAY_g, align 8, !tbaa !10
  %22 = load i64, ptr @H5E_CANTINC_g, align 8, !tbaa !10
  %23 = tail call i32 (ptr, ptr, i32, i64, i64, ptr, ...) @H5E_printf_stack(ptr noundef nonnull @.str.1, ptr noundef nonnull @__func__.H5EA__sblock_alloc, i32 noundef 106, i64 noundef %21, i64 noundef %22, ptr noundef nonnull @.str.3) #3
  br label %71

24:                                               ; preds = %17
  %25 = getelementptr inbounds nuw i8, ptr %11, i64 272
  store ptr %0, ptr %25, align 8, !tbaa !12
  %26 = getelementptr inbounds nuw i8, ptr %11, i64 312
  store ptr %1, ptr %26, align 8, !tbaa !27
  %27 = getelementptr inbounds nuw i8, ptr %11, i64 280
  store i64 -1, ptr %27, align 8, !tbaa !28
  %28 = getelementptr inbounds nuw i8, ptr %11, i64 320
  store i32 %2, ptr %28, align 8, !tbaa !29
  %29 = getelementptr inbounds nuw i8, ptr %0, i64 440
  %30 = load ptr, ptr %29, align 8, !tbaa !30
  %31 = zext i32 %2 to i64
  %32 = getelementptr inbounds nuw %struct.H5EA_sblk_info_t, ptr %30, i64 %31
  %33 = load i64, ptr %32, align 8, !tbaa !41
  %34 = getelementptr inbounds nuw i8, ptr %11, i64 328
  store i64 %33, ptr %34, align 8, !tbaa !43
  %35 = getelementptr inbounds nuw %struct.H5EA_sblk_info_t, ptr %30, i64 %31, i32 1
  %36 = load i64, ptr %35, align 8, !tbaa !44
  %37 = getelementptr inbounds nuw i8, ptr %11, i64 336
  store i64 %36, ptr %37, align 8, !tbaa !45
  %38 = tail call noalias ptr @H5FL_seq_malloc(ptr noundef nonnull @H5_haddr_t_seq_free_list, i64 noundef %33) #3
  %39 = getelementptr inbounds nuw i8, ptr %11, i64 256
  store ptr %38, ptr %39, align 8, !tbaa !46
  %40 = icmp eq ptr %38, null
  br i1 %40, label %41, label %45

41:                                               ; preds = %24
  %42 = load i64, ptr @H5E_EARRAY_g, align 8, !tbaa !10
  %43 = load i64, ptr @H5E_CANTALLOC_g, align 8, !tbaa !10
  %44 = tail call i32 (ptr, ptr, i32, i64, i64, ptr, ...) @H5E_printf_stack(ptr noundef nonnull @.str.1, ptr noundef nonnull @__func__.H5EA__sblock_alloc, i32 noundef 122, i64 noundef %42, i64 noundef %43, ptr noundef nonnull @.str.4) #3
  br label %71

45:                                               ; preds = %24
  %46 = getelementptr inbounds nuw i8, ptr %0, i64 448
  %47 = load i64, ptr %46, align 8, !tbaa !47
  %48 = icmp ugt i64 %36, %47
  br i1 %48, label %49, label %.thread

49:                                               ; preds = %45
  %50 = udiv i64 %36, %47
  %51 = getelementptr inbounds nuw i8, ptr %11, i64 344
  store i64 %50, ptr %51, align 8, !tbaa !48
  %52 = add i64 %50, 7
  %53 = lshr i64 %52, 3
  %54 = getelementptr inbounds nuw i8, ptr %11, i64 352
  store i64 %53, ptr %54, align 8, !tbaa !49
  %55 = mul i64 %33, %53
  %56 = tail call noalias ptr @H5FL_blk_calloc(ptr noundef nonnull @H5_page_init_blk_free_list, i64 noundef %55) #3
  %57 = getelementptr inbounds nuw i8, ptr %11, i64 264
  store ptr %56, ptr %57, align 8, !tbaa !50
  %58 = icmp eq ptr %56, null
  br i1 %58, label %59, label %63

59:                                               ; preds = %49
  %60 = load i64, ptr @H5E_EARRAY_g, align 8, !tbaa !10
  %61 = load i64, ptr @H5E_CANTALLOC_g, align 8, !tbaa !10
  %62 = tail call i32 (ptr, ptr, i32, i64, i64, ptr, ...) @H5E_printf_stack(ptr noundef nonnull @.str.1, ptr noundef nonnull @__func__.H5EA__sblock_alloc, i32 noundef 143, i64 noundef %60, i64 noundef %61, ptr noundef nonnull @.str.5) #3
  br label %71

63:                                               ; preds = %49
  %64 = load i64, ptr %46, align 8, !tbaa !47
  %65 = getelementptr inbounds nuw i8, ptr %0, i64 256
  %66 = load i8, ptr %65, align 8, !tbaa !51
  %67 = zext i8 %66 to i64
  %68 = mul i64 %64, %67
  %69 = add i64 %68, 4
  %70 = getelementptr inbounds nuw i8, ptr %11, i64 360
  store i64 %69, ptr %70, align 8, !tbaa !52
  br label %.thread

71:                                               ; preds = %20, %41, %59
  %72 = tail call i32 @H5EA__sblock_dest(ptr noundef nonnull %11)
  %73 = icmp slt i32 %72, 0
  br i1 %73, label %74, label %.thread

74:                                               ; preds = %71
  %75 = load i64, ptr @H5E_EARRAY_g, align 8, !tbaa !10
  %76 = load i64, ptr @H5E_CANTFREE_g, align 8, !tbaa !10
  %77 = tail call i32 (ptr, ptr, i32, i64, i64, ptr, ...) @H5E_printf_stack(ptr noundef nonnull @.str.1, ptr noundef nonnull @__func__.H5EA__sblock_alloc, i32 noundef 155, i64 noundef %75, i64 noundef %76, ptr noundef nonnull @.str.6) #3
  br label %.thread

.thread:                                          ; preds = %13, %45, %63, %74, %71, %3
  %.0 = phi ptr [ null, %74 ], [ null, %71 ], [ null, %3 ], [ %11, %45 ], [ %11, %63 ], [ null, %13 ]
  ret ptr %.0
}